; Function Attrs: nofree norecurse nosync nounwind memory(argmem: readwrite) uwtable
define dso_local void @Curl_pollset_set(ptr noundef readnone captures(none) %0, ptr noundef captures(none) %1, i32 noundef %2, i1 noundef zeroext %3, i1 noundef zeroext %4) local_unnamed_addr #9 {
  %6 = zext i1 %3 to i32
  %7 = select i1 %4, i32 2, i32 0
  %8 = or disjoint i32 %7, %6
  %9 = xor i1 %3, true
  %10 = zext i1 %9 to i8
  %11 = select i1 %4, i8 0, i8 2
  %12 = or disjoint i8 %11, %10
  %13 = icmp sgt i32 %2, -1
  br i1 %13, label %.preheader.i, label %Curl_pollset_change.exit

.preheader.i:                                     ; preds = %5
  %14 = getelementptr inbounds nuw i8, ptr %1, i64 20
  %15 = load i32, ptr %14, align 4, !tbaa !143
  %.not51.i = icmp eq i32 %15, 0
  br i1 %.not51.i, label %._crit_edge.i, label %.lr.ph.preheader.i

.lr.ph.preheader.i:                               ; preds = %.preheader.i
  %wide.trip.count.i = zext i32 %15 to i64
  br label %.lr.ph.i

.lr.ph.i:                                         ; preds = %43, %.lr.ph.preheader.i
  %indvars.iv.i = phi i64 [ 0, %.lr.ph.preheader.i ], [ %indvars.iv.next.i, %43 ]
  %16 = getelementptr inbounds nuw [5 x i32], ptr %1, i64 0, i64 %indvars.iv.i
  %17 = load i32, ptr %16, align 4, !tbaa !44
  %18 = icmp eq i32 %17, %2
  br i1 %18, label %19, label %43

19:                                               ; preds = %.lr.ph.i
  %20 = getelementptr inbounds nuw [5 x i32], ptr %1, i64 0, i64 %indvars.iv.i
  %21 = getelementptr inbounds nuw i8, ptr %1, i64 24
  %22 = getelementptr inbounds nuw [5 x i8], ptr %21, i64 0, i64 %indvars.iv.i
  %23 = load i8, ptr %22, align 1, !tbaa !144
  %24 = xor i8 %12, -1
  %25 = and i8 %23, %24
  %26 = trunc nuw nsw i32 %8 to i8
  %27 = or i8 %25, %26
  store i8 %27, ptr %22, align 1, !tbaa !144
  %.not.i = icmp eq i8 %27, 0
  br i1 %.not.i, label %28, label %Curl_pollset_change.exit

28:                                               ; preds = %19
  %29 = trunc nuw i64 %indvars.iv.i to i32
  %30 = add nuw i32 %29, 1
  %31 = icmp ult i32 %30, %15
  br i1 %31, label %32, label %42

32:                                               ; preds = %28
  %33 = zext i32 %30 to i64
  %34 = getelementptr inbounds nuw [5 x i32], ptr %1, i64 0, i64 %33
  %35 = sub nuw i32 %15, %30
  %36 = zext i32 %35 to i64
  %37 = shl nuw nsw i64 %36, 2
  tail call void @llvm.memmove.p0.p0.i64(ptr nonnull align 4 %20, ptr nonnull align 4 %34, i64 %37, i1 false)
  %38 = getelementptr inbounds nuw [5 x i8], ptr %21, i64 0, i64 %33
  %39 = load i32, ptr %14, align 4, !tbaa !143
  %40 = sub i32 %39, %30
  %41 = zext i32 %40 to i64
  tail call void @llvm.memmove.p0.p0.i64(ptr nonnull align 1 %22, ptr nonnull align 1 %38, i64 %41, i1 false)
  br label %42

42:                                               ; preds = %32, %28
  %.pre-phi.in.i = phi i32 [ %39, %32 ], [ %15, %28 ]
  %.pre-phi.i = add i32 %.pre-phi.in.i, -1
  br label %.sink.split.i

43:                                               ; preds = %.lr.ph.i
  %indvars.iv.next.i = add nuw nsw i64 %indvars.iv.i, 1
  %exitcond.not.i = icmp eq i64 %indvars.iv.next.i, %wide.trip.count.i
  br i1 %exitcond.not.i, label %._crit_edge.i, label %.lr.ph.i, !llvm.loop !150

._crit_edge.i:                                    ; preds = %43, %.preheader.i
  %44 = icmp ne i32 %8, 0
  %45 = icmp ult i32 %15, 5
  %or.cond.i = and i1 %44, %45
  br i1 %or.cond.i, label %46, label %Curl_pollset_change.exit

46:                                               ; preds = %._crit_edge.i
  %47 = zext nneg i32 %15 to i64
  %48 = getelementptr inbounds nuw [5 x i32], ptr %1, i64 0, i64 %47
  store i32 %2, ptr %48, align 4, !tbaa !44
  %49 = trunc nuw nsw i32 %8 to i8
  %50 = getelementptr inbounds nuw i8, ptr %1, i64 24
  %51 = getelementptr inbounds nuw [5 x i8], ptr %50, i64 0, i64 %47
  store i8 %49, ptr %51, align 1, !tbaa !144
  %52 = add nuw nsw i32 %15, 1
  br label %.sink.split.i

.sink.split.i:                                    ; preds = %46, %42
  %.sink.i = phi i32 [ %52, %46 ], [ %.pre-phi.i, %42 ]
  store i32 %.sink.i, ptr %14, align 4, !tbaa !143
  br label %Curl_pollset_change.exit

Curl_pollset_change.exit:                         ; preds = %5, %19, %._crit_edge.i, %.sink.split.i
  ret void
}